target datalayout = "e-m:e-p270:32:32-p271:32:32-p272:64:64-i64:64-i128:128-f80:128-n8:16:32:64-S128"
target triple = "x86_64-pc-linux-gnu"

%struct.PyModuleDef = type { %struct.PyModuleDef_Base, ptr, ptr, i64, ptr, ptr, ptr, ptr, ptr }
%struct.PyModuleDef_Base = type { %struct._object, ptr, i64, ptr }
%struct._object = type { %union.anon, ptr }
%union.anon = type { i64 }
%struct.pysqlite_Connection = type { %struct._object, ptr, ptr, i32, ptr, i32, i32, i32, i64, ptr, ptr, ptr, i32, ptr, ptr, ptr, ptr, ptr, ptr, ptr, ptr, ptr, ptr, ptr, ptr, ptr, ptr, ptr }
%struct.pysqlite_state = type { ptr, ptr, ptr, ptr, ptr, ptr, ptr, ptr, ptr, ptr, ptr, ptr, ptr, i32, i32, ptr, ptr, ptr, ptr, ptr, ptr, ptr, ptr, ptr, ptr, ptr, ptr, ptr, ptr }

@.str = private unnamed_addr constant [37 x i8] c"Base Connection.__init__ not called.\00", align 1
@.str.1 = private unnamed_addr constant [37 x i8] c"Cannot operate on a closed database.\00", align 1
@.str.2 = private unnamed_addr constant [140 x i8] c"SQLite objects created in a thread can only be used in that same thread. The object was created in thread id %lu and this is thread id %lu.\00", align 1
@_sqlite3module = external global %struct.PyModuleDef, align 8
@.str.92 = private unnamed_addr constant [28 x i8] c"'category' is out of bounds\00", align 1

; Function Attrs: inlinehint nounwind uwtable
define internal ptr @pysqlite_get_state(ptr noundef %0) #2 {
  %2 = alloca ptr, align 8
  %3 = alloca ptr, align 8
  store ptr %0, ptr %2, align 8, !tbaa !22
  call void @llvm.lifetime.start.p0(i64 8, ptr %3) #8
  %4 = load ptr, ptr %2, align 8, !tbaa !22
  %5 = call ptr @PyModule_GetState(ptr noundef %4)
  store ptr %5, ptr %3, align 8, !tbaa !3
  %6 = load ptr, ptr %3, align 8, !tbaa !3
  call void @llvm.lifetime.end.p0(i64 8, ptr %3) #8
  ret ptr %6
}

; Function Attrs: inlinehint nounwind uwtable
define internal ptr @pysqlite_get_state_by_type(ptr noundef %0) #2 {
  %2 = alloca ptr, align 8
  %3 = alloca ptr, align 8
  store ptr %0, ptr %2, align 8, !tbaa !21
  call void @llvm.lifetime.start.p0(i64 8, ptr %3) #8
  %4 = load ptr, ptr %2, align 8, !tbaa !21
  %5 = call ptr @PyType_GetModuleByDef(ptr noundef %4, ptr noundef @_sqlite3module)
  store ptr %5, ptr %3, align 8, !tbaa !22
  %6 = load ptr, ptr %3, align 8, !tbaa !22
  %7 = call ptr @pysqlite_get_state(ptr noundef %6)
  call void @llvm.lifetime.end.p0(i64 8, ptr %3) #8
  ret ptr %7
}

; Function Attrs: inlinehint nounwind uwtable
define internal ptr @_Py_TYPE(ptr noundef %0) #2 {
  %2 = alloca ptr, align 8
  store ptr %0, ptr %2, align 8, !tbaa !22
  %3 = load ptr, ptr %2, align 8, !tbaa !22
  %4 = getelementptr inbounds nuw %struct._object, ptr %3, i32 0, i32 1
  %5 = load ptr, ptr %4, align 8, !tbaa !23
  ret ptr %5
}

; Function Attrs: nounwind uwtable
define hidden i32 @pysqlite_check_connection(ptr noundef %0) #0 {
  %2 = alloca i32, align 4
  %3 = alloca ptr, align 8
  %4 = alloca ptr, align 8
  store ptr %0, ptr %3, align 8, !tbaa !3
  %5 = load ptr, ptr %3, align 8, !tbaa !3
  %6 = getelementptr inbounds nuw %struct.pysqlite_Connection, ptr %5, i32 0, i32 7
  %7 = load i32, ptr %6, align 8, !tbaa !7
  %8 = icmp ne i32 %7, 0
  br i1 %8, label %16, label %9

9:                                                ; preds = %1
  call void @llvm.lifetime.start.p0(i64 8, ptr %4) #8
  %10 = load ptr, ptr %3, align 8, !tbaa !3
  %11 = call ptr @_Py_TYPE(ptr noundef %10)
  %12 = call ptr @pysqlite_get_state_by_type(ptr noundef %11)
  store ptr %12, ptr %4, align 8, !tbaa !3
  %13 = load ptr, ptr %4, align 8, !tbaa !3
  %14 = getelementptr inbounds nuw %struct.pysqlite_state, ptr %13, i32 0, i32 8
  %15 = load ptr, ptr %14, align 8, !tbaa !17
  call void @PyErr_SetString(ptr noundef %15, ptr noundef @.str)
  store i32 0, ptr %2, align 4
  call void @llvm.lifetime.end.p0(i64 8, ptr %4) #8
  br label %28

16:                                               ; preds = %1
  %17 = load ptr, ptr %3, align 8, !tbaa !3
  %18 = getelementptr inbounds nuw %struct.pysqlite_Connection, ptr %17, i32 0, i32 1
  %19 = load ptr, ptr %18, align 8, !tbaa !19
  %20 = icmp ne ptr %19, null
  br i1 %20, label %27, label %21

21:                                               ; preds = %16
  %22 = load ptr, ptr %3, align 8, !tbaa !3
  %23 = getelementptr inbounds nuw %struct.pysqlite_Connection, ptr %22, i32 0, i32 2
  %24 = load ptr, ptr %23, align 8, !tbaa !20
  %25 = getelementptr inbounds nuw %struct.pysqlite_state, ptr %24, i32 0, i32 8
  %26 = load ptr, ptr %25, align 8, !tbaa !17
  call void @PyErr_SetString(ptr noundef %26, ptr noundef @.str.1)
  store i32 0, ptr %2, align 4
  br label %28

27:                                               ; preds = %16
  store i32 1, ptr %2, align 4
  br label %28

28:                                               ; preds = %27, %21, %9
  %29 = load i32, ptr %2, align 4
  ret i32 %29
}

; Function Attrs: nounwind uwtable
define hidden i32 @pysqlite_check_thread(ptr noundef %0) #0 {
  %2 = alloca i32, align 4
  %3 = alloca ptr, align 8
  store ptr %0, ptr %3, align 8, !tbaa !3
  %4 = load ptr, ptr %3, align 8, !tbaa !3
  %5 = getelementptr inbounds nuw %struct.pysqlite_Connection, ptr %4, i32 0, i32 6
  %6 = load i32, ptr %5, align 4, !tbaa !24
  %7 = icmp ne i32 %6, 0
  br i1 %7, label %8, label %24

8:                                                ; preds = %1
  %9 = call i64 @PyThread_get_thread_ident()
  %10 = load ptr, ptr %3, align 8, !tbaa !3
  %11 = getelementptr inbounds nuw %struct.pysqlite_Connection, ptr %10, i32 0, i32 8
  %12 = load i64, ptr %11, align 8, !tbaa !25
  %13 = icmp ne i64 %9, %12
  br i1 %13, label %14, label %23

14:                                               ; preds = %8
  %15 = load ptr, ptr %3, align 8, !tbaa !3
  %16 = getelementptr inbounds nuw %struct.pysqlite_Connection, ptr %15, i32 0, i32 26
  %17 = load ptr, ptr %16, align 8, !tbaa !26
  %18 = load ptr, ptr %3, align 8, !tbaa !3
  %19 = getelementptr inbounds nuw %struct.pysqlite_Connection, ptr %18, i32 0, i32 8
  %20 = load i64, ptr %19, align 8, !tbaa !25
  %21 = call i64 @PyThread_get_thread_ident()
  %22 = call ptr (ptr, ptr, ...) @PyErr_Format(ptr noundef %17, ptr noundef @.str.2, i64 noundef %20, i64 noundef %21)
  store i32 0, ptr %2, align 4
  br label %25

23:                                               ; preds = %8
  br label %24

24:                                               ; preds = %23, %1
  store i32 1, ptr %2, align 4
  br label %25

25:                                               ; preds = %24, %14
  %26 = load i32, ptr %2, align 4
  ret i32 %26
}

; Function Attrs: nounwind uwtable
define internal ptr @setlimit_impl(ptr noundef %0, i32 noundef %1, i32 noundef %2) #0 {
  %4 = alloca ptr, align 8
  %5 = alloca ptr, align 8
  %6 = alloca i32, align 4
  %7 = alloca i32, align 4
  %8 = alloca i32, align 4
  %9 = alloca i32, align 4
  store ptr %0, ptr %5, align 8, !tbaa !3
  store i32 %1, ptr %6, align 4, !tbaa !30
  store i32 %2, ptr %7, align 4, !tbaa !30
  %10 = load ptr, ptr %5, align 8, !tbaa !3
  %11 = call i32 @pysqlite_check_thread(ptr noundef %10)
  %12 = icmp ne i32 %11, 0
  br i1 %12, label %13, label %17

13:                                               ; preds = %3
  %14 = load ptr, ptr %5, align 8, !tbaa !3
  %15 = call i32 @pysqlite_check_connection(ptr noundef %14)
  %16 = icmp ne i32 %15, 0
  br i1 %16, label %18, label %17

17:                                               ; preds = %13, %3
  store ptr null, ptr %4, align 8
  br label %36

18:                                               ; preds = %13
  call void @llvm.lifetime.start.p0(i64 4, ptr %8) #8
  %19 = load ptr, ptr %5, align 8, !tbaa !3
  %20 = getelementptr inbounds nuw %struct.pysqlite_Connection, ptr %19, i32 0, i32 1
  %21 = load ptr, ptr %20, align 8, !tbaa !19
  %22 = load i32, ptr %6, align 4, !tbaa !30
  %23 = load i32, ptr %7, align 4, !tbaa !30
  %24 = call i32 @sqlite3_limit(ptr noundef %21, i32 noundef %22, i32 noundef %23)
  store i32 %24, ptr %8, align 4, !tbaa !30
  %25 = load i32, ptr %8, align 4, !tbaa !30
  %26 = icmp slt i32 %25, 0
  br i1 %26, label %27, label %31

27:                                               ; preds = %18
  %28 = load ptr, ptr %5, align 8, !tbaa !3
  %29 = getelementptr inbounds nuw %struct.pysqlite_Connection, ptr %28, i32 0, i32 26
  %30 = load ptr, ptr %29, align 8, !tbaa !26
  call void @PyErr_SetString(ptr noundef %30, ptr noundef @.str.92)
  store ptr null, ptr %4, align 8
  store i32 1, ptr %9, align 4
  br label %35

31:                                               ; preds = %18
  %32 = load i32, ptr %8, align 4, !tbaa !30
  %33 = sext i32 %32 to i64
  %34 = call ptr @PyLong_FromLong(i64 noundef %33)
  store ptr %34, ptr %4, align 8
  store i32 1, ptr %9, align 4
  br label %35

35:                                               ; preds = %31, %27
  call void @llvm.lifetime.end.p0(i64 4, ptr %8) #8
  br label %36

36:                                               ; preds = %35, %17
  %37 = load ptr, ptr %4, align 8
  ret ptr %37
}