; Function Attrs: nounwind uwtable
define internal fastcc ptr @setlimit_impl(ptr noundef readonly captures(none) %0, i32 noundef %1, i32 noundef %2) unnamed_addr #0 {
  %4 = getelementptr inbounds nuw i8, ptr %0, i64 52
  %5 = load i32, ptr %4, align 4, !tbaa !21
  %.not.i = icmp eq i32 %5, 0
  br i1 %.not.i, label %14, label %6

6:                                                ; preds = %3
  %7 = tail call i64 @PyThread_get_thread_ident() #7
  %8 = getelementptr inbounds nuw i8, ptr %0, i64 64
  %9 = load i64, ptr %8, align 8, !tbaa !22
  %.not5.i = icmp eq i64 %7, %9
  br i1 %.not5.i, label %14, label %pysqlite_check_thread.exit

pysqlite_check_thread.exit:                       ; preds = %6
  %10 = getelementptr inbounds nuw i8, ptr %0, i64 208
  %11 = load ptr, ptr %10, align 8, !tbaa !23
  %12 = tail call i64 @PyThread_get_thread_ident() #7
  %13 = tail call ptr (ptr, ptr, ...) @PyErr_Format(ptr noundef %11, ptr noundef nonnull @.str.2, i64 noundef %9, i64 noundef %12) #7
  br label %37

14:                                               ; preds = %6, %3
  %15 = getelementptr inbounds nuw i8, ptr %0, i64 56
  %16 = load i32, ptr %15, align 8, !tbaa !3
  %.not.i10 = icmp eq i32 %16, 0
  br i1 %.not.i10, label %17, label %21

17:                                               ; preds = %14
  %18 = getelementptr i8, ptr %0, i64 8
  %.val.i = load ptr, ptr %18, align 8, !tbaa !16
  %19 = tail call ptr @PyType_GetModuleByDef(ptr noundef %.val.i, ptr noundef nonnull @_sqlite3module) #7
  %20 = tail call ptr @PyModule_GetState(ptr noundef %19) #7
  br label %pysqlite_check_connection.exit.thread

21:                                               ; preds = %14
  %22 = getelementptr inbounds nuw i8, ptr %0, i64 16
  %23 = load ptr, ptr %22, align 8, !tbaa !17
  %.not5.i11 = icmp eq ptr %23, null
  br i1 %.not5.i11, label %24, label %pysqlite_check_connection.exit

24:                                               ; preds = %21
  %25 = getelementptr inbounds nuw i8, ptr %0, i64 24
  %26 = load ptr, ptr %25, align 8, !tbaa !18
  br label %pysqlite_check_connection.exit.thread

pysqlite_check_connection.exit.thread:            ; preds = %17, %24
  %.sink.i = phi ptr [ %26, %24 ], [ %20, %17 ]
  %.str.1.sink.i = phi ptr [ @.str.1, %24 ], [ @.str, %17 ]
  %27 = getelementptr inbounds nuw i8, ptr %.sink.i, i64 64
  %28 = load ptr, ptr %27, align 8, !tbaa !19
  tail call void @PyErr_SetString(ptr noundef %28, ptr noundef nonnull %.str.1.sink.i) #7
  br label %37

pysqlite_check_connection.exit:                   ; preds = %21
  %29 = tail call i32 @sqlite3_limit(ptr noundef nonnull %23, i32 noundef %1, i32 noundef %2) #7
  %30 = icmp slt i32 %29, 0
  br i1 %30, label %31, label %34

31:                                               ; preds = %pysqlite_check_connection.exit
  %32 = getelementptr inbounds nuw i8, ptr %0, i64 208
  %33 = load ptr, ptr %32, align 8, !tbaa !23
  tail call void @PyErr_SetString(ptr noundef %33, ptr noundef nonnull @.str.92) #7
  br label %37

34:                                               ; preds = %pysqlite_check_connection.exit
  %35 = zext nneg i32 %29 to i64
  %36 = tail call ptr @PyLong_FromLong(i64 noundef %35) #7
  br label %37

37:                                               ; preds = %pysqlite_check_connection.exit.thread, %pysqlite_check_thread.exit, %31, %34
  %.0 = phi ptr [ null, %pysqlite_check_thread.exit ], [ null, %31 ], [ %36, %34 ], [ null, %pysqlite_check_connection.exit.thread ]
  ret ptr %.0
}